target datalayout = "e-m:e-p270:32:32-p271:32:32-p272:64:64-i64:64-i128:128-f80:128-n8:16:32:64-S128"
target triple = "x86_64-pc-linux-gnu"

%struct.ZSTD_frameParameters = type { i32, i32, i32 }

; Function Attrs: nounwind uwtable
define internal i32 @ERR_isError(i64 noundef %0) #0 {
  %2 = alloca i64, align 8
  store i64 %0, ptr %2, align 8, !tbaa !3
  %3 = load i64, ptr %2, align 8, !tbaa !3
  %4 = icmp ugt i64 %3, -120
  %5 = zext i1 %4 to i32
  ret i32 %5
}

; Function Attrs: nounwind uwtable
define internal i64 @ZSTD_compress_usingCDict_internal(ptr noundef %0, ptr noundef %1, i64 noundef %2, ptr noundef %3, i64 noundef %4, ptr noundef %5, ptr noundef byval(%struct.ZSTD_frameParameters) align 8 %6) #0 {
  %8 = alloca i64, align 8
  %9 = alloca ptr, align 8
  %10 = alloca ptr, align 8
  %11 = alloca i64, align 8
  %12 = alloca ptr, align 8
  %13 = alloca i64, align 8
  %14 = alloca ptr, align 8
  %15 = alloca i64, align 8
  %16 = alloca { i64, i32 }, align 8
  %17 = alloca i32, align 4
  store ptr %0, ptr %9, align 8, !tbaa !11
  store ptr %1, ptr %10, align 8, !tbaa !15
  store i64 %2, ptr %11, align 8, !tbaa !3
  store ptr %3, ptr %12, align 8, !tbaa !15
  store i64 %4, ptr %13, align 8, !tbaa !3
  store ptr %5, ptr %14, align 8, !tbaa !148
  br label %18

18:                                               ; preds = %7
  call void @llvm.lifetime.start.p0(i64 8, ptr %15) #15
  %19 = load ptr, ptr %9, align 8, !tbaa !11
  %20 = load ptr, ptr %14, align 8, !tbaa !148
  %21 = load i64, ptr %13, align 8, !tbaa !3
  call void @llvm.memcpy.p0.p0.i64(ptr align 8 %16, ptr align 8 %6, i64 12, i1 false)
  %22 = getelementptr inbounds nuw { i64, i32 }, ptr %16, i32 0, i32 0
  %23 = load i64, ptr %22, align 8
  %24 = getelementptr inbounds nuw { i64, i32 }, ptr %16, i32 0, i32 1
  %25 = load i32, ptr %24, align 8
  %26 = call i64 @ZSTD_compressBegin_usingCDict_internal(ptr noundef %19, ptr noundef %20, i64 %23, i32 %25, i64 noundef %21)
  store i64 %26, ptr %15, align 8, !tbaa !3
  %27 = load i64, ptr %15, align 8, !tbaa !3
  %28 = call i32 @ERR_isError(i64 noundef %27)
  %29 = icmp ne i32 %28, 0
  br i1 %29, label %30, label %44

30:                                               ; preds = %18
  br label %31

31:                                               ; preds = %30
  br label %32

32:                                               ; preds = %31
  br label %33

33:                                               ; preds = %32
  br label %34

34:                                               ; preds = %33
  br label %35

35:                                               ; preds = %34
  br label %36

36:                                               ; preds = %35
  br label %37

37:                                               ; preds = %36
  br label %38

38:                                               ; preds = %37
  br label %39

39:                                               ; preds = %38
  br label %40

40:                                               ; preds = %39
  br label %41

41:                                               ; preds = %40
  br label %42

42:                                               ; preds = %41
  %43 = load i64, ptr %15, align 8, !tbaa !3
  store i64 %43, ptr %8, align 8
  store i32 1, ptr %17, align 4
  br label %45

44:                                               ; preds = %18
  store i32 0, ptr %17, align 4
  br label %45

45:                                               ; preds = %44, %42
  call void @llvm.lifetime.end.p0(i64 8, ptr %15) #15
  %46 = load i32, ptr %17, align 4
  switch i32 %46, label %57 [
    i32 0, label %47
    i32 1, label %55
  ]

47:                                               ; preds = %45
  br label %48

48:                                               ; preds = %47
  %49 = load ptr, ptr %9, align 8, !tbaa !11
  %50 = load ptr, ptr %10, align 8, !tbaa !15
  %51 = load i64, ptr %11, align 8, !tbaa !3
  %52 = load ptr, ptr %12, align 8, !tbaa !15
  %53 = load i64, ptr %13, align 8, !tbaa !3
  %54 = call i64 @ZSTD_compressEnd_public(ptr noundef %49, ptr noundef %50, i64 noundef %51, ptr noundef %52, i64 noundef %53)
  store i64 %54, ptr %8, align 8
  br label %55

55:                                               ; preds = %48, %45
  %56 = load i64, ptr %8, align 8
  ret i64 %56

57:                                               ; preds = %45
  unreachable
}

; Function Attrs: nounwind uwtable
define i64 @ZSTD_compress_usingCDict_advanced(ptr noundef %0, ptr noundef %1, i64 noundef %2, ptr noundef %3, i64 noundef %4, ptr noundef %5, ptr noundef byval(%struct.ZSTD_frameParameters) align 8 %6) #0 {
  %8 = alloca ptr, align 8
  %9 = alloca ptr, align 8
  %10 = alloca i64, align 8
  %11 = alloca ptr, align 8
  %12 = alloca i64, align 8
  %13 = alloca ptr, align 8
  store ptr %0, ptr %8, align 8, !tbaa !11
  store ptr %1, ptr %9, align 8, !tbaa !15
  store i64 %2, ptr %10, align 8, !tbaa !3
  store ptr %3, ptr %11, align 8, !tbaa !15
  store i64 %4, ptr %12, align 8, !tbaa !3
  store ptr %5, ptr %13, align 8, !tbaa !148
  %14 = load ptr, ptr %8, align 8, !tbaa !11
  %15 = load ptr, ptr %9, align 8, !tbaa !15
  %16 = load i64, ptr %10, align 8, !tbaa !3
  %17 = load ptr, ptr %11, align 8, !tbaa !15
  %18 = load i64, ptr %12, align 8, !tbaa !3
  %19 = load ptr, ptr %13, align 8, !tbaa !148
  %20 = call i64 @ZSTD_compress_usingCDict_internal(ptr noundef %14, ptr noundef %15, i64 noundef %16, ptr noundef %17, i64 noundef %18, ptr noundef %19, ptr noundef byval(%struct.ZSTD_frameParameters) align 8 %6)
  ret i64 %20
}