; Function Attrs: nounwind uwtable
define i64 @ZSTD_compress_usingCDict_advanced(ptr noundef %0, ptr noundef %1, i64 noundef %2, ptr noundef %3, i64 noundef %4, ptr noundef %5, ptr noundef readonly byval(%struct.ZSTD_frameParameters) align 8 captures(none) %6) local_unnamed_addr #2 {
  %.val = load i64, ptr %6, align 8
  %8 = getelementptr inbounds nuw i8, ptr %6, i64 8
  %.val5 = load i32, ptr %8, align 8
  %9 = tail call fastcc i64 @ZSTD_compressBegin_usingCDict_internal(ptr noundef %0, ptr noundef %5, i64 %.val, i32 %.val5, i64 noundef %4)
  %10 = icmp ult i64 %9, -119
  br i1 %10, label %11, label %ZSTD_compress_usingCDict_internal.exit

11:                                               ; preds = %7
  %12 = tail call i64 @ZSTD_compressEnd_public(ptr noundef %0, ptr noundef %1, i64 noundef %2, ptr noundef %3, i64 noundef %4)
  br label %ZSTD_compress_usingCDict_internal.exit

ZSTD_compress_usingCDict_internal.exit:           ; preds = %7, %11
  %.1.i = phi i64 [ %9, %7 ], [ %12, %11 ]
  ret i64 %.1.i
}